target datalayout = "e-m:e-p270:32:32-p271:32:32-p272:64:64-i64:64-i128:128-f80:128-n8:16:32:64-S128"
target triple = "x86_64-pc-linux-gnu"

%struct.redisServer = type { i32, i64, ptr, ptr, ptr, i32, i32, i32, i32, i32, ptr, ptr, ptr, ptr, ptr, i32, i32, i32, i32, i64, i32, i32, i32, i32, ptr, i32, i32, [41 x i8], i32, i64, i32, i32, i32, ptr, ptr, i32, i32, i64, ptr, ptr, ptr, ptr, [2 x i32], i32, i32, i32, i32, i32, i32, [16 x ptr], i32, ptr, ptr, i32, [8 x %struct.connListener], i32, %struct.connListener, ptr, ptr, ptr, ptr, ptr, ptr, ptr, ptr, ptr, ptr, i32, ptr, i32, ptr, [3 x %struct.pause_event], [256 x i8], ptr, i64, i32, i32, [128 x i32], i32, i32, i64, i32, i32, i32, i32, i32, i64, i64, i64, i64, i64, i64, i64, i64, i64, i64, double, i64, i64, i64, i64, i64, i64, i64, i64, i64, i64, i64, i64, i64, i64, i64, i64, i64, i64, i64, i64, i64, double, i64, i64, i64, i64, i64, ptr, i64, i64, i64, %struct.malloc_stats, i64, i64, i64, i64, i64, i64, i64, i64, i64, i64, i64, i64, double, [4 x i64], i64, i64, i64, i64, [128 x i64], [128 x i64], i64, i64, [7 x %struct.anon], i64, i64, i64, i64, i64, i64, [4 x %struct.durationStats], i32, i32, i32, i32, i32, i32, i32, i32, i32, i32, i32, i32, i64, i32, i32, i32, i32, i64, i64, i32, i32, i32, i32, i32, ptr, [3 x %struct.clientBufferLimitsConfig], i32, i32, i32, ptr, i32, i32, i32, i32, i32, i32, ptr, ptr, i32, i32, i64, i64, i64, i64, i64, i32, i32, ptr, i32, i32, i64, i64, i64, i64, i64, i32, i32, i64, i32, i32, i32, i32, i32, i32, i32, i32, ptr, i32, i64, i64, i64, i64, i32, ptr, i32, ptr, i32, i32, i32, i64, i64, i64, i64, i32, i32, i32, i32, i32, i32, ptr, i32, i32, ptr, i32, i32, i32, [2 x i32], i32, %struct.redisOpArray, i32, ptr, i32, ptr, i32, i32, i32, i32, i32, i32, i32, [41 x i8], [41 x i8], i64, i64, i64, i64, i32, i32, ptr, i64, i64, %struct.replDataBuf, i64, i64, i32, i32, i32, i32, i32, i32, i32, i32, i32, i64, ptr, i64, ptr, ptr, ptr, i32, i32, ptr, ptr, i32, i32, i32, i64, i64, i64, i64, ptr, ptr, i32, ptr, i64, i32, i32, i32, i64, i32, i32, i32, i32, ptr, i32, i32, [41 x i8], i64, i32, ptr, i32, i32, i64, i64, i32, i32, i32, i32, i32, i64, [3 x i32], i32, i32, i32, [10 x i32], ptr, ptr, i32, i64, ptr, ptr, i32, i32, i32, i32, i64, i64, i64, i64, i64, i64, i64, i64, i64, i64, i32, i32, i64, i64, i32, i64, i64, i64, i64, i64, ptr, ptr, i32, ptr, i32, i32, i32, i32, i64, i64, ptr, ptr, i32, i32, i32, i32, i32, ptr, ptr, ptr, i32, i32, i32, i32, i32, i32, i32, i64, i32, i32, i64, i32, i32, i32, i32, i32, i32, i32, i64, ptr, ptr, i64, ptr, i32, %struct.aclInfo, i32, i64, i32, i32, i32, %struct.redisTLSContextConfig, ptr, ptr, ptr, ptr, ptr, i64, i32, ptr, i32, i32, i32, i64, i32, ptr }
%struct.connListener = type { [16 x i32], i32, ptr, i32, i32, ptr, ptr }
%struct.pause_event = type { i32, i64 }
%struct.malloc_stats = type { i64, i64, i64, i64, i64, i64, i64, i64, i64, i64, i64 }
%struct.anon = type { i64, i64, [16 x i64], i32 }
%struct.durationStats = type { i64, i64, i64 }
%struct.clientBufferLimitsConfig = type { i64, i64, i64 }
%struct.redisOpArray = type { ptr, i32, i32 }
%struct.replDataBuf = type { ptr, i64, i64, i64, i64 }
%struct.aclInfo = type { i64, i64, i64, i64 }
%struct.redisTLSContextConfig = type { ptr, ptr, ptr, ptr, ptr, ptr, ptr, ptr, ptr, ptr, ptr, ptr, i32, i32, i32, i32 }
%struct.EbucketsType = type { ptr, ptr, i32 }
%struct.mstrKind = type { ptr, [16 x i32] }
%struct.dict = type { ptr, [2 x ptr], [2 x i64], i64, i16, [2 x i8], i16, [0 x ptr] }

@server = external global %struct.redisServer, align 8
@.str = private unnamed_addr constant [9 x i8] c"defrag.c\00", align 1
@hashFieldExpireBucketsType = external global %struct.EbucketsType, align 8
@.str.6 = private unnamed_addr constant [3 x i8] c"de\00", align 1
@mstrFieldKind = external global %struct.mstrKind, align 8

; Function Attrs: nounwind uwtable
define dso_local ptr @activeDefragAlloc(ptr noundef %0) #0 {
  %2 = alloca ptr, align 8
  %3 = alloca ptr, align 8
  %4 = alloca i64, align 8
  %5 = alloca ptr, align 8
  %6 = alloca i32, align 4
  store ptr %0, ptr %3, align 8, !tbaa !5
  call void @llvm.lifetime.start.p0(i64 8, ptr %4) #10
  call void @llvm.lifetime.start.p0(i64 8, ptr %5) #10
  %7 = load ptr, ptr %3, align 8, !tbaa !5
  %8 = call i32 @je_get_defrag_hint(ptr noundef %7)
  %9 = icmp ne i32 %8, 0
  br i1 %9, label %13, label %10

10:                                               ; preds = %1
  %11 = load i64, ptr getelementptr inbounds nuw (%struct.redisServer, ptr @server, i32 0, i32 107), align 8, !tbaa !9
  %12 = add nsw i64 %11, 1
  store i64 %12, ptr getelementptr inbounds nuw (%struct.redisServer, ptr @server, i32 0, i32 107), align 8, !tbaa !9
  store ptr null, ptr %2, align 8
  store i32 1, ptr %6, align 4
  br label %25

13:                                               ; preds = %1
  %14 = load ptr, ptr %3, align 8, !tbaa !5
  %15 = call i64 @je_malloc_usable_size(ptr noundef %14) #10
  store i64 %15, ptr %4, align 8, !tbaa !39
  %16 = load i64, ptr %4, align 8, !tbaa !39
  %17 = call noalias ptr @zmalloc_no_tcache(i64 noundef %16)
  store ptr %17, ptr %5, align 8, !tbaa !5
  %18 = load ptr, ptr %5, align 8, !tbaa !5
  %19 = load ptr, ptr %3, align 8, !tbaa !5
  %20 = load i64, ptr %4, align 8, !tbaa !39
  call void @llvm.memcpy.p0.p0.i64(ptr align 1 %18, ptr align 1 %19, i64 %20, i1 false)
  %21 = load ptr, ptr %3, align 8, !tbaa !5
  call void @zfree_no_tcache(ptr noundef %21)
  %22 = load i64, ptr getelementptr inbounds nuw (%struct.redisServer, ptr @server, i32 0, i32 106), align 8, !tbaa !40
  %23 = add nsw i64 %22, 1
  store i64 %23, ptr getelementptr inbounds nuw (%struct.redisServer, ptr @server, i32 0, i32 106), align 8, !tbaa !40
  %24 = load ptr, ptr %5, align 8, !tbaa !5
  store ptr %24, ptr %2, align 8
  store i32 1, ptr %6, align 4
  br label %25

25:                                               ; preds = %13, %10
  call void @llvm.lifetime.end.p0(i64 8, ptr %5) #10
  call void @llvm.lifetime.end.p0(i64 8, ptr %4) #10
  %26 = load ptr, ptr %2, align 8
  ret ptr %26
}

; Function Attrs: inlinehint nounwind uwtable
define internal ptr @hfieldGetAllocPtr(ptr noundef %0) #5 {
  %2 = alloca ptr, align 8
  store ptr %0, ptr %2, align 8, !tbaa !41
  %3 = load ptr, ptr %2, align 8, !tbaa !41
  %4 = call ptr @mstrGetAllocPtr(ptr noundef @mstrFieldKind, ptr noundef %3)
  ret ptr %4
}

; Function Attrs: nounwind uwtable
define dso_local ptr @activeDefragHfield(ptr noundef %0) #0 {
  %2 = alloca ptr, align 8
  %3 = alloca ptr, align 8
  %4 = alloca ptr, align 8
  %5 = alloca ptr, align 8
  %6 = alloca i64, align 8
  %7 = alloca i32, align 4
  store ptr %0, ptr %3, align 8, !tbaa !41
  call void @llvm.lifetime.start.p0(i64 8, ptr %4) #10
  %8 = load ptr, ptr %3, align 8, !tbaa !41
  %9 = call ptr @hfieldGetAllocPtr(ptr noundef %8)
  store ptr %9, ptr %4, align 8, !tbaa !5
  call void @llvm.lifetime.start.p0(i64 8, ptr %5) #10
  %10 = load ptr, ptr %4, align 8, !tbaa !5
  %11 = call ptr @activeDefragAlloc(ptr noundef %10)
  store ptr %11, ptr %5, align 8, !tbaa !5
  %12 = load ptr, ptr %5, align 8, !tbaa !5
  %13 = icmp ne ptr %12, null
  br i1 %13, label %14, label %24

14:                                               ; preds = %1
  call void @llvm.lifetime.start.p0(i64 8, ptr %6) #10
  %15 = load ptr, ptr %3, align 8, !tbaa !41
  %16 = load ptr, ptr %4, align 8, !tbaa !5
  %17 = ptrtoint ptr %15 to i64
  %18 = ptrtoint ptr %16 to i64
  %19 = sub i64 %17, %18
  store i64 %19, ptr %6, align 8, !tbaa !39
  %20 = load ptr, ptr %5, align 8, !tbaa !5
  %21 = load i64, ptr %6, align 8, !tbaa !39
  %22 = getelementptr inbounds nuw i8, ptr %20, i64 %21
  store ptr %22, ptr %3, align 8, !tbaa !41
  %23 = load ptr, ptr %3, align 8, !tbaa !41
  store ptr %23, ptr %2, align 8
  store i32 1, ptr %7, align 4
  call void @llvm.lifetime.end.p0(i64 8, ptr %6) #10
  br label %25

24:                                               ; preds = %1
  store ptr null, ptr %2, align 8
  store i32 1, ptr %7, align 4
  br label %25

25:                                               ; preds = %24, %14
  call void @llvm.lifetime.end.p0(i64 8, ptr %5) #10
  call void @llvm.lifetime.end.p0(i64 8, ptr %4) #10
  %26 = load ptr, ptr %2, align 8
  ret ptr %26
}

; Function Attrs: nounwind uwtable
define dso_local void @activeDefragHfieldDictCallback(ptr noundef %0, ptr noundef %1) #0 {
  %3 = alloca ptr, align 8
  %4 = alloca ptr, align 8
  %5 = alloca ptr, align 8
  %6 = alloca ptr, align 8
  %7 = alloca ptr, align 8
  %8 = alloca ptr, align 8
  %9 = alloca i64, align 8
  %10 = alloca ptr, align 8
  store ptr %0, ptr %3, align 8, !tbaa !5
  store ptr %1, ptr %4, align 8, !tbaa !75
  call void @llvm.lifetime.start.p0(i64 8, ptr %5) #10
  %11 = load ptr, ptr %3, align 8, !tbaa !5
  store ptr %11, ptr %5, align 8, !tbaa !53
  call void @llvm.lifetime.start.p0(i64 8, ptr %6) #10
  call void @llvm.lifetime.start.p0(i64 8, ptr %7) #10
  %12 = load ptr, ptr %4, align 8, !tbaa !75
  %13 = call ptr @dictGetKey(ptr noundef %12)
  store ptr %13, ptr %7, align 8, !tbaa !41
  %14 = load ptr, ptr %7, align 8, !tbaa !41
  %15 = call i64 @hfieldGetExpireTime(ptr noundef %14)
  %16 = icmp eq i64 %15, 281474976710656
  br i1 %16, label %17, label %20

17:                                               ; preds = %2
  %18 = load ptr, ptr %7, align 8, !tbaa !41
  %19 = call ptr @activeDefragHfield(ptr noundef %18)
  store ptr %19, ptr %6, align 8, !tbaa !41
  br label %26

20:                                               ; preds = %2
  call void @llvm.lifetime.start.p0(i64 8, ptr %8) #10
  %21 = load ptr, ptr %5, align 8, !tbaa !53
  %22 = call ptr @hashTypeGetDictMetaHFE(ptr noundef %21)
  store ptr %22, ptr %8, align 8, !tbaa !5
  %23 = load ptr, ptr %8, align 8, !tbaa !5
  %24 = load ptr, ptr %7, align 8, !tbaa !41
  %25 = call ptr @ebDefragItem(ptr noundef %23, ptr noundef @hashFieldExpireBucketsType, ptr noundef %24, ptr noundef @activeDefragHfield)
  store ptr %25, ptr %6, align 8, !tbaa !41
  call void @llvm.lifetime.end.p0(i64 8, ptr %8) #10
  br label %26

26:                                               ; preds = %20, %17
  %27 = load ptr, ptr %6, align 8, !tbaa !41
  %28 = icmp ne ptr %27, null
  br i1 %28, label %29, label %62

29:                                               ; preds = %26
  %30 = load ptr, ptr %5, align 8, !tbaa !53
  %31 = getelementptr inbounds nuw %struct.dict, ptr %30, i32 0, i32 4
  %32 = load i16, ptr %31, align 8
  %33 = and i16 %32, 32767
  %34 = or i16 %33, -32768
  store i16 %34, ptr %31, align 8
  call void @llvm.lifetime.start.p0(i64 8, ptr %9) #10
  %35 = load ptr, ptr %5, align 8, !tbaa !53
  %36 = load ptr, ptr %6, align 8, !tbaa !41
  %37 = call i64 @dictGetHash(ptr noundef %35, ptr noundef %36)
  store i64 %37, ptr %9, align 8, !tbaa !39
  %38 = load ptr, ptr %5, align 8, !tbaa !53
  %39 = getelementptr inbounds nuw %struct.dict, ptr %38, i32 0, i32 4
  %40 = load i16, ptr %39, align 8
  %41 = and i16 %40, 32767
  %42 = or i16 %41, 0
  store i16 %42, ptr %39, align 8
  call void @llvm.lifetime.start.p0(i64 8, ptr %10) #10
  %43 = load ptr, ptr %5, align 8, !tbaa !53
  %44 = load ptr, ptr %7, align 8, !tbaa !41
  %45 = load i64, ptr %9, align 8, !tbaa !39
  %46 = call ptr @dictFindByHashAndPtr(ptr noundef %43, ptr noundef %44, i64 noundef %45)
  store ptr %46, ptr %10, align 8, !tbaa !75
  %47 = load ptr, ptr %10, align 8, !tbaa !75
  %48 = icmp ne ptr %47, null
  %49 = xor i1 %48, true
  %50 = xor i1 %49, true
  %51 = zext i1 %50 to i32
  %52 = sext i32 %51 to i64
  %53 = call i64 @llvm.expect.i64(i64 %52, i64 1)
  %54 = icmp ne i64 %53, 0
  br i1 %54, label %55, label %56

55:                                               ; preds = %29
  br label %58

56:                                               ; preds = %29
  call void @_serverAssert(ptr noundef @.str.6, ptr noundef @.str, i32 noundef 301)
  call void @abort() #11
  unreachable

57:                                               ; No predecessors!
  br label %58

58:                                               ; preds = %57, %55
  %59 = load ptr, ptr %5, align 8, !tbaa !53
  %60 = load ptr, ptr %10, align 8, !tbaa !75
  %61 = load ptr, ptr %6, align 8, !tbaa !41
  call void @dictSetKey(ptr noundef %59, ptr noundef %60, ptr noundef %61)
  call void @llvm.lifetime.end.p0(i64 8, ptr %10) #10
  call void @llvm.lifetime.end.p0(i64 8, ptr %9) #10
  br label %62

62:                                               ; preds = %58, %26
  call void @llvm.lifetime.end.p0(i64 8, ptr %7) #10
  call void @llvm.lifetime.end.p0(i64 8, ptr %6) #10
  call void @llvm.lifetime.end.p0(i64 8, ptr %5) #10
  ret void
}