; Function Attrs: nounwind uwtable
define dso_local void @activeDefragHfieldDictCallback(ptr noundef %0, ptr noundef %1) #0 {
  %3 = tail call ptr @dictGetKey(ptr noundef %1) #10
  %4 = tail call i64 @hfieldGetExpireTime(ptr noundef %3) #10
  %5 = icmp eq i64 %4, 281474976710656
  br i1 %5, label %6, label %19

6:                                                ; preds = %2
  %7 = tail call ptr @mstrGetAllocPtr(ptr noundef nonnull @mstrFieldKind, ptr noundef %3) #10
  %8 = tail call i32 @je_get_defrag_hint(ptr noundef %7) #10
  %.not.i.i = icmp eq i32 %8, 0
  br i1 %.not.i.i, label %activeDefragHfield.exit.thread, label %activeDefragHfield.exit

activeDefragHfield.exit.thread:                   ; preds = %6
  %9 = load i64, ptr getelementptr inbounds nuw (i8, ptr @server, i64 2592), align 8, !tbaa !5
  %10 = add nsw i64 %9, 1
  store i64 %10, ptr getelementptr inbounds nuw (i8, ptr @server, i64 2592), align 8, !tbaa !5
  br label %.thread

activeDefragHfield.exit:                          ; preds = %6
  %11 = tail call i64 @je_malloc_usable_size(ptr noundef %7) #10
  %12 = tail call noalias ptr @zmalloc_no_tcache(i64 noundef %11) #10
  tail call void @llvm.memcpy.p0.p0.i64(ptr align 1 %12, ptr align 1 %7, i64 %11, i1 false)
  tail call void @zfree_no_tcache(ptr noundef %7) #10
  %13 = load i64, ptr getelementptr inbounds nuw (i8, ptr @server, i64 2584), align 8, !tbaa !38
  %14 = add nsw i64 %13, 1
  store i64 %14, ptr getelementptr inbounds nuw (i8, ptr @server, i64 2584), align 8, !tbaa !38
  %.not.i = icmp eq ptr %12, null
  %15 = ptrtoint ptr %3 to i64
  %16 = ptrtoint ptr %7 to i64
  %17 = sub i64 %15, %16
  %18 = getelementptr inbounds nuw i8, ptr %12, i64 %17
  br i1 %.not.i, label %.thread, label %22

19:                                               ; preds = %2
  %20 = tail call ptr @hashTypeGetDictMetaHFE(ptr noundef %0) #10
  %21 = tail call ptr @ebDefragItem(ptr noundef %20, ptr noundef nonnull @hashFieldExpireBucketsType, ptr noundef %3, ptr noundef nonnull @activeDefragHfield) #10
  br label %22

22:                                               ; preds = %activeDefragHfield.exit, %19
  %.0 = phi ptr [ %18, %activeDefragHfield.exit ], [ %21, %19 ]
  %.not = icmp eq ptr %.0, null
  br i1 %.not, label %.thread, label %23

23:                                               ; preds = %22
  %24 = getelementptr inbounds nuw i8, ptr %0, i64 48
  %25 = load i16, ptr %24, align 8
  %26 = or i16 %25, -32768
  store i16 %26, ptr %24, align 8
  %27 = tail call i64 @dictGetHash(ptr noundef %0, ptr noundef nonnull %.0) #10
  %28 = load i16, ptr %24, align 8
  %29 = and i16 %28, 32767
  store i16 %29, ptr %24, align 8
  %30 = tail call ptr @dictFindByHashAndPtr(ptr noundef %0, ptr noundef %3, i64 noundef %27) #10
  %.not19 = icmp eq ptr %30, null
  br i1 %.not19, label %31, label %32, !prof !57

31:                                               ; preds = %23
  tail call void @_serverAssert(ptr noundef nonnull @.str.6, ptr noundef nonnull @.str, i32 noundef 301) #10
  tail call void @abort() #11
  unreachable

32:                                               ; preds = %23
  tail call void @dictSetKey(ptr noundef nonnull %0, ptr noundef nonnull %30, ptr noundef nonnull %.0) #10
  br label %.thread

.thread:                                          ; preds = %activeDefragHfield.exit.thread, %activeDefragHfield.exit, %32, %22
  ret void
}